target datalayout = "e-m:e-p270:32:32-p271:32:32-p272:64:64-i64:64-i128:128-f80:128-n8:16:32:64-S128"
target triple = "x86_64-pc-linux-gnu"

%struct._zend_executor_globals = type { %struct._zval_struct, %struct._zval_struct, [32 x ptr], ptr, ptr, %struct._zend_array, %struct._zend_array, ptr, i32, i32, ptr, ptr, ptr, ptr, ptr, ptr, i64, ptr, ptr, i32, i32, i64, i32, i32, i32, i8, i8, %struct.zend_atomic_bool_s, %struct.zend_atomic_bool_s, ptr, i64, ptr, ptr, %struct._zend_array, %struct._zend_array, i32, i8, %struct._zval_struct, %struct._zval_struct, %struct._zend_stack, %struct._zend_stack, %struct._zend_stack, ptr, i32, i32, i64, ptr, ptr, ptr, %struct._zend_objects_store, ptr, ptr, ptr, [3 x %struct._zend_op], ptr, i8, i8, i64, i32, i32, ptr, [16 x %struct._HashTableIterator], ptr, %union._zend_function, %struct._zend_op, %struct._zend_array, i64, %struct.zend_get_gc_buffer, ptr, ptr, ptr, i64, i8, i32, ptr, ptr, i64, %struct._zend_call_stack, i64, i64, [6 x ptr] }
%struct.zend_atomic_bool_s = type { i8 }
%struct._zval_struct = type { %union._zend_value, %union.anon.3, %union.anon.6 }
%union._zend_value = type { i64 }
%union.anon.3 = type { i32 }
%union.anon.6 = type { i32 }
%struct._zend_stack = type { i32, i32, i32, ptr }
%struct._zend_objects_store = type { ptr, i32, i32, i32 }
%struct._HashTableIterator = type { ptr, i32, i32 }
%union._zend_function = type { %struct._zend_op_array }
%struct._zend_op_array = type { i8, [3 x i8], i32, ptr, ptr, ptr, i32, i32, ptr, ptr, ptr, ptr, i32, i32, i32, i32, ptr, ptr, ptr, ptr, ptr, i32, i32, ptr, ptr, ptr, i32, i32, i32, i32, ptr, ptr, [6 x ptr] }
%struct._zend_op = type { ptr, %union._znode_op, %union._znode_op, %union._znode_op, i32, i32, i8, i8, i8, i8 }
%union._znode_op = type { i32 }
%struct._zend_array = type { %struct._zend_refcounted_h, %union.anon.0, i32, %union.anon.1, i32, i32, i32, i32, i64, ptr }
%struct._zend_refcounted_h = type { i32, %union.anon }
%union.anon = type { i32 }
%union.anon.0 = type { i32 }
%union.anon.1 = type { ptr }
%struct.zend_get_gc_buffer = type { ptr, ptr, ptr }
%struct._zend_call_stack = type { ptr, i64 }
%struct._spl_SplObjectStorage = type { %struct._zend_array, i64, i32, i64, ptr, %struct._zend_object }
%struct._zend_object = type { %struct._zend_refcounted_h, i32, ptr, ptr, ptr, [1 x %struct._zval_struct] }
%struct._zend_execute_data = type { ptr, ptr, ptr, ptr, %struct._zval_struct, ptr, ptr, ptr, ptr }
%struct._spl_SplObjectStorageElement = type { ptr, %struct._zval_struct }
%struct._zend_class_entry = type { i8, ptr, %union.anon.8, i32, i32, i32, i32, ptr, ptr, ptr, %struct._zend_array, %struct._zend_array, %struct._zend_array, ptr, ptr, ptr, ptr, ptr, ptr, ptr, ptr, ptr, ptr, ptr, ptr, ptr, ptr, ptr, ptr, ptr, ptr, ptr, %union.anon.9, ptr, ptr, ptr, ptr, i32, i32, %union.anon.10, ptr, ptr, ptr, ptr, i32, ptr, ptr, %union.anon.11 }
%union.anon.8 = type { ptr }
%union.anon.9 = type { ptr }
%union.anon.10 = type { ptr }
%union.anon.11 = type { %struct.anon.12 }
%struct.anon.12 = type { ptr, i32, i32 }
%struct._zend_class_iterator_funcs = type { ptr, ptr, ptr, ptr, ptr, ptr }

@executor_globals = external global %struct._zend_executor_globals, align 8

; Function Attrs: nounwind uwtable
define internal ptr @spl_object_storage_from_obj(ptr noundef %0) #0 {
  %2 = alloca ptr, align 8
  store ptr %0, ptr %2, align 8
  %3 = load ptr, ptr %2, align 8
  %4 = getelementptr inbounds i8, ptr %3, i64 -88
  ret ptr %4
}

; Function Attrs: nounwind uwtable
define hidden void @zim_MultipleIterator_next(ptr noundef %0, ptr noundef %1) #0 {
  %3 = alloca ptr, align 8
  %4 = alloca ptr, align 8
  %5 = alloca ptr, align 8
  %6 = alloca i32, align 4
  %7 = alloca ptr, align 8
  %8 = alloca ptr, align 8
  %9 = alloca ptr, align 8
  %10 = alloca ptr, align 8
  %11 = alloca ptr, align 8
  %12 = alloca ptr, align 8
  %13 = alloca ptr, align 8
  %14 = alloca ptr, align 8
  %15 = alloca ptr, align 8
  %16 = alloca ptr, align 8
  %17 = alloca ptr, align 8
  %18 = alloca ptr, align 8
  %19 = alloca ptr, align 8
  store ptr %0, ptr %15, align 8
  store ptr %1, ptr %16, align 8
  %20 = load ptr, ptr %15, align 8
  %21 = getelementptr inbounds %struct._zend_execute_data, ptr %20, i32 0, i32 4
  %22 = getelementptr inbounds %struct._zval_struct, ptr %21, i32 0, i32 0
  %23 = load ptr, ptr %22, align 8
  %24 = call ptr @spl_object_storage_from_obj(ptr noundef %23)
  store ptr %24, ptr %17, align 8
  %25 = load ptr, ptr %15, align 8
  %26 = getelementptr inbounds %struct._zend_execute_data, ptr %25, i32 0, i32 4
  %27 = getelementptr inbounds %struct._zval_struct, ptr %26, i32 0, i32 2
  %28 = load i32, ptr %27, align 4
  %29 = icmp eq i32 %28, 0
  %30 = xor i1 %29, true
  %31 = xor i1 %30, true
  %32 = zext i1 %31 to i32
  %33 = sext i32 %32 to i64
  %34 = icmp ne i64 %33, 0
  br i1 %34, label %35, label %36

35:                                               ; preds = %2
  br label %37

36:                                               ; preds = %2
  call void @zend_wrong_parameters_none_error()
  br label %37

37:                                               ; preds = %36, %35
  %38 = phi i32 [ 0, %35 ], [ -1, %36 ]
  %39 = icmp eq i32 %38, -1
  br i1 %39, label %40, label %45

40:                                               ; preds = %37
  br label %41

41:                                               ; preds = %40
  %42 = load ptr, ptr getelementptr inbounds (%struct._zend_executor_globals, ptr @executor_globals, i32 0, i32 50), align 8
  %43 = icmp ne ptr %42, null
  call void @llvm.assume(i1 %43)
  br label %104

44:                                               ; No predecessors!
  br label %45

45:                                               ; preds = %44, %37
  %46 = load ptr, ptr %17, align 8
  %47 = getelementptr inbounds %struct._spl_SplObjectStorage, ptr %46, i32 0, i32 0
  %48 = load ptr, ptr %17, align 8
  %49 = getelementptr inbounds %struct._spl_SplObjectStorage, ptr %48, i32 0, i32 2
  call void @zend_hash_internal_pointer_reset_ex(ptr noundef %47, ptr noundef %49)
  br label %50

50:                                               ; preds = %76, %45
  %51 = load ptr, ptr %17, align 8
  %52 = getelementptr inbounds %struct._spl_SplObjectStorage, ptr %51, i32 0, i32 0
  %53 = load ptr, ptr %17, align 8
  %54 = getelementptr inbounds %struct._spl_SplObjectStorage, ptr %53, i32 0, i32 2
  store ptr %52, ptr %12, align 8
  store ptr %54, ptr %13, align 8
  %55 = load ptr, ptr %12, align 8
  %56 = load ptr, ptr %13, align 8
  %57 = call ptr @zend_hash_get_current_data_ex(ptr noundef %55, ptr noundef %56) #10
  store ptr %57, ptr %14, align 8
  %58 = load ptr, ptr %14, align 8
  %59 = icmp ne ptr %58, null
  br i1 %59, label %60, label %66

60:                                               ; preds = %50
  %61 = load ptr, ptr %14, align 8
  %62 = load ptr, ptr %61, align 8
  %63 = icmp ne ptr %62, null
  call void @llvm.assume(i1 %63)
  %64 = load ptr, ptr %14, align 8
  %65 = load ptr, ptr %64, align 8
  store ptr %65, ptr %11, align 8
  br label %67

66:                                               ; preds = %50
  store ptr null, ptr %11, align 8
  br label %67

67:                                               ; preds = %66, %60
  %68 = load ptr, ptr %11, align 8
  store ptr %68, ptr %18, align 8
  %69 = icmp ne ptr %68, null
  br i1 %69, label %70, label %74

70:                                               ; preds = %67
  %71 = load ptr, ptr getelementptr inbounds (%struct._zend_executor_globals, ptr @executor_globals, i32 0, i32 50), align 8
  %72 = icmp ne ptr %71, null
  %73 = xor i1 %72, true
  br label %74

74:                                               ; preds = %70, %67
  %75 = phi i1 [ false, %67 ], [ %73, %70 ]
  br i1 %75, label %76, label %104

76:                                               ; preds = %74
  %77 = load ptr, ptr %18, align 8
  %78 = getelementptr inbounds %struct._spl_SplObjectStorageElement, ptr %77, i32 0, i32 0
  %79 = load ptr, ptr %78, align 8
  store ptr %79, ptr %19, align 8
  %80 = load ptr, ptr %19, align 8
  %81 = getelementptr inbounds %struct._zend_object, ptr %80, i32 0, i32 2
  %82 = load ptr, ptr %81, align 8
  %83 = getelementptr inbounds %struct._zend_class_entry, ptr %82, i32 0, i32 30
  %84 = load ptr, ptr %83, align 8
  %85 = getelementptr inbounds %struct._zend_class_iterator_funcs, ptr %84, i32 0, i32 4
  %86 = load ptr, ptr %85, align 8
  %87 = load ptr, ptr %19, align 8
  store ptr %86, ptr %8, align 8
  store ptr %87, ptr %9, align 8
  store ptr null, ptr %10, align 8
  %88 = load ptr, ptr %8, align 8
  %89 = load ptr, ptr %9, align 8
  %90 = load ptr, ptr %10, align 8
  store ptr %88, ptr %3, align 8
  store ptr %89, ptr %4, align 8
  store ptr %90, ptr %5, align 8
  store i32 0, ptr %6, align 4
  store ptr null, ptr %7, align 8
  %91 = load ptr, ptr %3, align 8
  %92 = load ptr, ptr %4, align 8
  %93 = load ptr, ptr %4, align 8
  %94 = getelementptr inbounds %struct._zend_object, ptr %93, i32 0, i32 2
  %95 = load ptr, ptr %94, align 8
  %96 = load ptr, ptr %5, align 8
  %97 = load i32, ptr %6, align 4
  %98 = load ptr, ptr %7, align 8
  call void @zend_call_known_function(ptr noundef %91, ptr noundef %92, ptr noundef %95, ptr noundef %96, i32 noundef %97, ptr noundef %98, ptr noundef null) #10
  %99 = load ptr, ptr %17, align 8
  %100 = getelementptr inbounds %struct._spl_SplObjectStorage, ptr %99, i32 0, i32 0
  %101 = load ptr, ptr %17, align 8
  %102 = getelementptr inbounds %struct._spl_SplObjectStorage, ptr %101, i32 0, i32 2
  %103 = call i32 @zend_hash_move_forward_ex(ptr noundef %100, ptr noundef %102)
  br label %50

104:                                              ; preds = %74, %41
  ret void
}