; Function Attrs: nounwind uwtable
define hidden void @zim_MultipleIterator_next(ptr nocapture noundef readonly %0, ptr nocapture readnone %1) #0 {
  %3 = getelementptr inbounds i8, ptr %0, i64 32
  %4 = load ptr, ptr %3, align 8
  %5 = getelementptr inbounds i8, ptr %4, i64 -88
  %6 = getelementptr inbounds i8, ptr %0, i64 44
  %7 = load i32, ptr %6, align 4
  %.not = icmp eq i32 %7, 0
  br i1 %.not, label %.critedge, label %8

8:                                                ; preds = %2
  tail call void @zend_wrong_parameters_none_error() #10
  %9 = load ptr, ptr getelementptr inbounds (%struct._zend_executor_globals, ptr @executor_globals, i64 0, i32 50), align 8
  %10 = icmp ne ptr %9, null
  tail call void @llvm.assume(i1 %10)
  br label %.thread

.critedge:                                        ; preds = %2
  %11 = getelementptr inbounds i8, ptr %4, i64 -24
  tail call void @zend_hash_internal_pointer_reset_ex(ptr noundef nonnull %5, ptr noundef nonnull %11) #10
  %12 = tail call ptr @zend_hash_get_current_data_ex(ptr noundef nonnull %5, ptr noundef nonnull %11) #10
  %.not2630 = icmp ne ptr %12, null
  %13 = load ptr, ptr getelementptr inbounds (%struct._zend_executor_globals, ptr @executor_globals, i64 0, i32 50), align 8
  %.not2731 = icmp eq ptr %13, null
  %or.cond32 = select i1 %.not2630, i1 %.not2731, i1 false
  br i1 %or.cond32, label %.lr.ph, label %.thread

.lr.ph:                                           ; preds = %.critedge, %.lr.ph
  %14 = phi ptr [ %24, %.lr.ph ], [ %12, %.critedge ]
  %15 = load ptr, ptr %14, align 8, !nonnull !4, !noundef !4
  %16 = load ptr, ptr %15, align 8
  %17 = getelementptr inbounds i8, ptr %16, i64 16
  %18 = load ptr, ptr %17, align 8
  %19 = getelementptr inbounds i8, ptr %18, i64 368
  %20 = load ptr, ptr %19, align 8
  %21 = getelementptr inbounds i8, ptr %20, i64 32
  %22 = load ptr, ptr %21, align 8
  tail call void @zend_call_known_function(ptr noundef %22, ptr noundef %16, ptr noundef %18, ptr noundef null, i32 noundef 0, ptr noundef null, ptr noundef null) #10
  %23 = tail call i32 @zend_hash_move_forward_ex(ptr noundef nonnull %5, ptr noundef nonnull %11) #10
  %24 = tail call ptr @zend_hash_get_current_data_ex(ptr noundef nonnull %5, ptr noundef nonnull %11) #10
  %.not26 = icmp ne ptr %24, null
  %25 = load ptr, ptr getelementptr inbounds (%struct._zend_executor_globals, ptr @executor_globals, i64 0, i32 50), align 8
  %.not27 = icmp eq ptr %25, null
  %or.cond = select i1 %.not26, i1 %.not27, i1 false
  br i1 %or.cond, label %.lr.ph, label %.thread

.thread:                                          ; preds = %.lr.ph, %.critedge, %8
  ret void
}